; Function Attrs: nounwind sspstrong uwtable
define internal noundef i32 @check_exec_options_i(i64 noundef %0, i64 noundef %1, i64 noundef %2) #1 {
  %4 = tail call i32 @rb_execarg_addopt(i64 noundef %2, i64 noundef %0, i64 noundef %1)
  %.not = icmp eq i32 %4, 0
  br i1 %.not, label %19, label %5

5:                                                ; preds = %3
  %6 = and i64 %0, 255
  %7 = icmp eq i64 %6, 12
  br i1 %7, label %RB_SYMBOL_P.exit.thread, label %8

8:                                                ; preds = %5
  %9 = icmp eq i64 %0, 0
  %10 = and i64 %0, 7
  %11 = icmp ne i64 %10, 0
  %12 = or i1 %9, %11
  br i1 %12, label %RB_SYMBOL_P.exit.thread8, label %RB_SYMBOL_P.exit

RB_SYMBOL_P.exit:                                 ; preds = %8
  %13 = inttoptr i64 %0 to ptr
  %14 = load i64, ptr %13, align 8, !tbaa !69
  %15 = and i64 %14, 31
  %16 = icmp eq i64 %15, 20
  br i1 %16, label %RB_SYMBOL_P.exit.thread, label %RB_SYMBOL_P.exit.thread8

RB_SYMBOL_P.exit.thread:                          ; preds = %5, %RB_SYMBOL_P.exit
  %17 = load i64, ptr @rb_eArgError, align 8, !tbaa !43
  tail call void (i64, ptr, ...) @rb_raise(i64 noundef %17, ptr noundef nonnull @.str.190, i64 noundef %0) #29
  unreachable

RB_SYMBOL_P.exit.thread8:                         ; preds = %8, %RB_SYMBOL_P.exit
  %18 = load i64, ptr @rb_eArgError, align 8, !tbaa !43
  tail call void (i64, ptr, ...) @rb_raise(i64 noundef %18, ptr noundef nonnull @.str.191) #29
  unreachable

19:                                               ; preds = %3
  ret i32 0
}